target datalayout = "e-m:e-p270:32:32-p271:32:32-p272:64:64-i64:64-i128:128-f80:128-n8:16:32:64-S128"
target triple = "x86_64-pc-linux-gnu"

%"class.V3Sched::(anonymous namespace)::SchedAcyclicLogicVertex" = type { %class.V3GraphVertex, ptr, ptr }
%class.V3GraphVertex = type { ptr, %class.V3ListLinks, %class.V3List.12, %class.V3List.13, double, i32, i32, %union.anon.14 }
%class.V3ListLinks = type { ptr, ptr }
%class.V3List.12 = type { ptr, ptr }
%class.V3List.13 = type { ptr, ptr }
%union.anon.14 = type { ptr }

; Function Attrs: mustprogress uwtable
define internal void @_ZN7V3Sched12_GLOBAL__N_123SchedAcyclicLogicVertexC2EP7V3GraphP7AstNodeP8AstScope(ptr noundef nonnull align 8 dereferenceable(96) %0, ptr noundef %1, ptr noundef %2, ptr noundef %3) unnamed_addr #4 align 2 {
  %5 = alloca ptr, align 8
  %6 = alloca ptr, align 8
  %7 = alloca ptr, align 8
  %8 = alloca ptr, align 8
  store ptr %0, ptr %5, align 8, !tbaa !24
  store ptr %1, ptr %6, align 8, !tbaa !47
  store ptr %2, ptr %7, align 8, !tbaa !22
  store ptr %3, ptr %8, align 8, !tbaa !19
  %9 = load ptr, ptr %5, align 8
  %10 = load ptr, ptr %6, align 8, !tbaa !47
  call void @_ZN13V3GraphVertexC2EP7V3Graph(ptr noundef nonnull align 8 dereferenceable(80) %9, ptr noundef %10)
  store ptr getelementptr inbounds inrange(-16, 104) ({ [15 x ptr] }, ptr @_ZTVN7V3Sched12_GLOBAL__N_123SchedAcyclicLogicVertexE, i32 0, i32 0, i32 2), ptr %9, align 8, !tbaa !89
  %11 = getelementptr inbounds nuw %"class.V3Sched::(anonymous namespace)::SchedAcyclicLogicVertex", ptr %9, i32 0, i32 1
  %12 = load ptr, ptr %7, align 8, !tbaa !22
  store ptr %12, ptr %11, align 8, !tbaa !118
  %13 = getelementptr inbounds nuw %"class.V3Sched::(anonymous namespace)::SchedAcyclicLogicVertex", ptr %9, i32 0, i32 2
  %14 = load ptr, ptr %8, align 8, !tbaa !19
  store ptr %14, ptr %13, align 8, !tbaa !125
  ret void
}

; Function Attrs: mustprogress nounwind uwtable
define internal noundef ptr @_ZNK7V3Sched12_GLOBAL__N_123SchedAcyclicLogicVertex6scopepEv(ptr noundef nonnull align 8 dereferenceable(96) %0) #6 align 2 {
  %2 = alloca ptr, align 8
  store ptr %0, ptr %2, align 8, !tbaa !24
  %3 = load ptr, ptr %2, align 8
  %4 = getelementptr inbounds nuw %"class.V3Sched::(anonymous namespace)::SchedAcyclicLogicVertex", ptr %3, i32 0, i32 2
  %5 = load ptr, ptr %4, align 8, !tbaa !125
  ret ptr %5
}

; Function Attrs: mustprogress nounwind uwtable
define internal noundef ptr @_ZNK7V3Sched12_GLOBAL__N_123SchedAcyclicLogicVertex6logicpEv(ptr noundef nonnull align 8 dereferenceable(96) %0) #6 align 2 {
  %2 = alloca ptr, align 8
  store ptr %0, ptr %2, align 8, !tbaa !24
  %3 = load ptr, ptr %2, align 8
  %4 = getelementptr inbounds nuw %"class.V3Sched::(anonymous namespace)::SchedAcyclicLogicVertex", ptr %3, i32 0, i32 1
  %5 = load ptr, ptr %4, align 8, !tbaa !118
  ret ptr %5
}

; Function Attrs: mustprogress uwtable
define internal noundef ptr @_ZNK7V3Sched12_GLOBAL__N_123SchedAcyclicLogicVertex5cloneEP7V3Graph(ptr noundef nonnull align 8 dereferenceable(96) %0, ptr noundef %1) unnamed_addr #4 align 2 personality ptr @__gxx_personality_v0 {
  %3 = alloca ptr, align 8
  %4 = alloca ptr, align 8
  %5 = alloca ptr, align 8
  %6 = alloca i32, align 4
  store ptr %0, ptr %3, align 8, !tbaa !24
  store ptr %1, ptr %4, align 8, !tbaa !47
  %7 = load ptr, ptr %3, align 8
  %8 = call noalias noundef nonnull ptr @_Znwm(i64 noundef 96) #23
  %9 = load ptr, ptr %4, align 8, !tbaa !47
  %10 = call noundef ptr @_ZNK7V3Sched12_GLOBAL__N_123SchedAcyclicLogicVertex6logicpEv(ptr noundef nonnull align 8 dereferenceable(96) %7)
  %11 = invoke noundef ptr @_ZNK7V3Sched12_GLOBAL__N_123SchedAcyclicLogicVertex6scopepEv(ptr noundef nonnull align 8 dereferenceable(96) %7)
          to label %12 unwind label %14

12:                                               ; preds = %2
  invoke void @_ZN7V3Sched12_GLOBAL__N_123SchedAcyclicLogicVertexC2EP7V3GraphP7AstNodeP8AstScope(ptr noundef nonnull align 8 dereferenceable(96) %8, ptr noundef %9, ptr noundef %10, ptr noundef %11)
          to label %13 unwind label %14

13:                                               ; preds = %12
  ret ptr %8

14:                                               ; preds = %12, %2
  %15 = landingpad { ptr, i32 }
          cleanup
  %16 = extractvalue { ptr, i32 } %15, 0
  store ptr %16, ptr %5, align 8
  %17 = extractvalue { ptr, i32 } %15, 1
  store i32 %17, ptr %6, align 4
  call void @_ZdlPvm(ptr noundef %8, i64 noundef 96) #24
  br label %18

18:                                               ; preds = %14
  %19 = load ptr, ptr %5, align 8
  %20 = load i32, ptr %6, align 4
  %21 = insertvalue { ptr, i32 } poison, ptr %19, 0
  %22 = insertvalue { ptr, i32 } %21, i32 %20, 1
  resume { ptr, i32 } %22
}