; Function Attrs: mustprogress uwtable
define internal noundef nonnull ptr @_ZNK7V3Sched12_GLOBAL__N_123SchedAcyclicLogicVertex5cloneEP7V3Graph(ptr noundef nonnull readonly align 8 captures(none) dereferenceable(96) %0, ptr noundef %1) unnamed_addr #3 align 2 personality ptr @__gxx_personality_v0 {
  %3 = tail call noalias noundef nonnull dereferenceable(96) ptr @_Znwm(i64 noundef 96) #30
  %4 = getelementptr inbounds nuw i8, ptr %0, i64 80
  %.val = load ptr, ptr %4, align 8, !tbaa !45
  %5 = getelementptr inbounds nuw i8, ptr %0, i64 88
  %.val3 = load ptr, ptr %5, align 8, !tbaa !54
  invoke void @_ZN13V3GraphVertexC2EP7V3Graph(ptr noundef nonnull align 8 dereferenceable(96) %3, ptr noundef %1)
          to label %6 unwind label %9

6:                                                ; preds = %2
  store ptr getelementptr inbounds nuw inrange(-16, 104) (i8, ptr @_ZTVN7V3Sched12_GLOBAL__N_123SchedAcyclicLogicVertexE, i64 16), ptr %3, align 8, !tbaa !7
  %7 = getelementptr inbounds nuw i8, ptr %3, i64 80
  store ptr %.val, ptr %7, align 8, !tbaa !45
  %8 = getelementptr inbounds nuw i8, ptr %3, i64 88
  store ptr %.val3, ptr %8, align 8, !tbaa !54
  ret ptr %3

9:                                                ; preds = %2
  %10 = landingpad { ptr, i32 }
          cleanup
  tail call void @_ZdlPvm(ptr noundef nonnull %3, i64 noundef 96) #32
  resume { ptr, i32 } %10
}